; Function Attrs: nounwind uwtable
define zeroext range(i8 0, 2) i8 @l_Int_Linear_eq__eq__subst__cert(ptr noundef %0, ptr noundef %1, ptr noundef %2, ptr noundef %3) local_unnamed_addr #1 {
  %5 = tail call ptr @l_Int_Linear_Poly_coeff(ptr noundef %1, ptr noundef %0)
  %6 = tail call ptr @l_Int_Linear_Poly_coeff(ptr noundef %2, ptr noundef %0)
  %7 = load ptr, ptr @l_Int_Linear_instInhabitedExpr___closed__1, align 8, !tbaa !11
  %8 = ptrtoint ptr %6 to i64
  %9 = ptrtoint ptr %7 to i64
  %10 = and i64 %8, 1
  %11 = and i64 %10, %9
  %or.cond.not.i.i.i = icmp eq i64 %11, 0
  br i1 %or.cond.not.i.i.i, label %lean_int_dec_eq.exit.i, label %12, !prof !13

12:                                               ; preds = %4
  %13 = icmp eq ptr %6, %7
  br i1 %13, label %17, label %15

lean_int_dec_eq.exit.i:                           ; preds = %4
  %14 = tail call zeroext i1 @lean_int_big_eq(ptr noundef %6, ptr noundef %7) #5
  br i1 %14, label %17, label %15

15:                                               ; preds = %lean_int_dec_eq.exit.i, %12
  %16 = tail call ptr @l_Int_Linear_Poly_mul_x27(ptr noundef %1, ptr noundef %6)
  br label %l_Int_Linear_Poly_mul.exit

17:                                               ; preds = %lean_int_dec_eq.exit.i, %12
  %18 = ptrtoint ptr %1 to i64
  %19 = and i64 %18, 1
  %.not.i27 = icmp eq i64 %19, 0
  br i1 %.not.i27, label %20, label %lean_dec.exit.i

20:                                               ; preds = %17
  %21 = load i32, ptr %1, align 4, !tbaa !6
  %22 = icmp sgt i32 %21, 1
  br i1 %22, label %23, label %25, !prof !5

23:                                               ; preds = %20
  %24 = add nsw i32 %21, -1
  store i32 %24, ptr %1, align 4, !tbaa !6
  br label %lean_dec.exit.i

25:                                               ; preds = %20
  %.not.i.i = icmp eq i32 %21, 0
  br i1 %.not.i.i, label %lean_dec.exit.i, label %26

26:                                               ; preds = %25
  tail call void @lean_dec_ref_cold(ptr noundef nonnull %1) #5
  br label %lean_dec.exit.i

lean_dec.exit.i:                                  ; preds = %26, %25, %23, %17
  %27 = load ptr, ptr @l_Int_Linear_Expr_toPoly_x27___closed__1, align 8, !tbaa !11
  br label %l_Int_Linear_Poly_mul.exit

l_Int_Linear_Poly_mul.exit:                       ; preds = %15, %lean_dec.exit.i
  %.0.i = phi ptr [ %16, %15 ], [ %27, %lean_dec.exit.i ]
  %.not = icmp eq i64 %10, 0
  br i1 %.not, label %28, label %lean_dec.exit20

28:                                               ; preds = %l_Int_Linear_Poly_mul.exit
  %29 = load i32, ptr %6, align 4, !tbaa !6
  %30 = icmp sgt i32 %29, 1
  br i1 %30, label %31, label %33, !prof !5

31:                                               ; preds = %28
  %32 = add nsw i32 %29, -1
  store i32 %32, ptr %6, align 4, !tbaa !6
  br label %lean_dec.exit20

33:                                               ; preds = %28
  %.not.i = icmp eq i32 %29, 0
  br i1 %.not.i, label %lean_dec.exit20, label %34

34:                                               ; preds = %33
  tail call void @lean_dec_ref_cold(ptr noundef nonnull %6) #5
  br label %lean_dec.exit20

lean_dec.exit20:                                  ; preds = %34, %33, %31, %l_Int_Linear_Poly_mul.exit
  %35 = ptrtoint ptr %5 to i64
  %36 = and i64 %35, 1
  %.not.i28 = icmp eq i64 %36, 0
  br i1 %.not.i28, label %50, label %37, !prof !4

37:                                               ; preds = %lean_dec.exit20
  %38 = shl i64 %35, 31
  %39 = ashr i64 %38, 32
  %40 = sub nsw i64 0, %39
  %41 = add nsw i64 %39, 2147483647
  %42 = icmp ult i64 %41, 4294967296
  br i1 %42, label %43, label %48, !prof !5

43:                                               ; preds = %37
  %44 = shl nsw i64 %40, 1
  %45 = and i64 %44, 8589934590
  %46 = or disjoint i64 %45, 1
  %47 = inttoptr i64 %46 to ptr
  br label %lean_dec.exit19

48:                                               ; preds = %37
  %49 = tail call ptr @lean_big_int64_to_int(i64 noundef range(i64 -4611686016279904256, 4611686018427387905) %40) #5
  br label %lean_dec.exit19

50:                                               ; preds = %lean_dec.exit20
  %51 = tail call ptr @lean_int_big_neg(ptr noundef %5) #5
  %52 = load i32, ptr %5, align 4, !tbaa !6
  %53 = icmp sgt i32 %52, 1
  br i1 %53, label %54, label %56, !prof !5

54:                                               ; preds = %50
  %55 = add nsw i32 %52, -1
  store i32 %55, ptr %5, align 4, !tbaa !6
  br label %lean_dec.exit19

56:                                               ; preds = %50
  %.not.i21 = icmp eq i32 %52, 0
  br i1 %.not.i21, label %lean_dec.exit19, label %57

57:                                               ; preds = %56
  tail call void @lean_dec_ref_cold(ptr noundef nonnull %5) #5
  br label %lean_dec.exit19

lean_dec.exit19:                                  ; preds = %48, %43, %57, %56, %54
  %.0.i2938 = phi ptr [ %51, %54 ], [ %51, %56 ], [ %51, %57 ], [ %49, %48 ], [ %47, %43 ]
  %58 = load ptr, ptr @l_Int_Linear_instInhabitedExpr___closed__1, align 8, !tbaa !11
  %59 = ptrtoint ptr %.0.i2938 to i64
  %60 = ptrtoint ptr %58 to i64
  %61 = and i64 %59, 1
  %62 = and i64 %61, %60
  %or.cond.not.i.i.i30 = icmp eq i64 %62, 0
  br i1 %or.cond.not.i.i.i30, label %lean_int_dec_eq.exit.i35, label %63, !prof !13

63:                                               ; preds = %lean_dec.exit19
  %64 = icmp eq ptr %.0.i2938, %58
  br i1 %64, label %68, label %66

lean_int_dec_eq.exit.i35:                         ; preds = %lean_dec.exit19
  %65 = tail call zeroext i1 @lean_int_big_eq(ptr noundef %.0.i2938, ptr noundef %58) #5
  br i1 %65, label %68, label %66

66:                                               ; preds = %lean_int_dec_eq.exit.i35, %63
  %67 = tail call ptr @l_Int_Linear_Poly_mul_x27(ptr noundef %2, ptr noundef %.0.i2938)
  br label %l_Int_Linear_Poly_mul.exit36

68:                                               ; preds = %lean_int_dec_eq.exit.i35, %63
  %69 = ptrtoint ptr %2 to i64
  %70 = and i64 %69, 1
  %.not.i32 = icmp eq i64 %70, 0
  br i1 %.not.i32, label %71, label %lean_dec.exit.i33

71:                                               ; preds = %68
  %72 = load i32, ptr %2, align 4, !tbaa !6
  %73 = icmp sgt i32 %72, 1
  br i1 %73, label %74, label %76, !prof !5

74:                                               ; preds = %71
  %75 = add nsw i32 %72, -1
  store i32 %75, ptr %2, align 4, !tbaa !6
  br label %lean_dec.exit.i33

76:                                               ; preds = %71
  %.not.i.i34 = icmp eq i32 %72, 0
  br i1 %.not.i.i34, label %lean_dec.exit.i33, label %77

77:                                               ; preds = %76
  tail call void @lean_dec_ref_cold(ptr noundef nonnull %2) #5
  br label %lean_dec.exit.i33

lean_dec.exit.i33:                                ; preds = %77, %76, %74, %68
  %78 = load ptr, ptr @l_Int_Linear_Expr_toPoly_x27___closed__1, align 8, !tbaa !11
  br label %l_Int_Linear_Poly_mul.exit36

l_Int_Linear_Poly_mul.exit36:                     ; preds = %66, %lean_dec.exit.i33
  %.0.i31 = phi ptr [ %67, %66 ], [ %78, %lean_dec.exit.i33 ]
  %.not39 = icmp eq i64 %61, 0
  br i1 %.not39, label %79, label %lean_dec.exit18

79:                                               ; preds = %l_Int_Linear_Poly_mul.exit36
  %80 = load i32, ptr %.0.i2938, align 4, !tbaa !6
  %81 = icmp sgt i32 %80, 1
  br i1 %81, label %82, label %84, !prof !5

82:                                               ; preds = %79
  %83 = add nsw i32 %80, -1
  store i32 %83, ptr %.0.i2938, align 4, !tbaa !6
  br label %lean_dec.exit18

84:                                               ; preds = %79
  %.not.i23 = icmp eq i32 %80, 0
  br i1 %.not.i23, label %lean_dec.exit18, label %85

85:                                               ; preds = %84
  tail call void @lean_dec_ref_cold(ptr noundef nonnull %.0.i2938) #5
  br label %lean_dec.exit18

lean_dec.exit18:                                  ; preds = %85, %84, %82, %l_Int_Linear_Poly_mul.exit36
  %86 = tail call ptr @l_Int_Linear_Poly_combine_x27(ptr noundef nonnull inttoptr (i64 200000001 to ptr), ptr noundef %.0.i, ptr noundef %.0.i31)
  %87 = tail call zeroext i8 @l_Int_Linear_beqPoly____x40_Init_Data_Int_Linear___hyg_596_(ptr noundef %3, ptr noundef %86)
  %88 = ptrtoint ptr %86 to i64
  %89 = and i64 %88, 1
  %.not40 = icmp eq i64 %89, 0
  br i1 %.not40, label %90, label %lean_dec.exit

90:                                               ; preds = %lean_dec.exit18
  %91 = load i32, ptr %86, align 4, !tbaa !6
  %92 = icmp sgt i32 %91, 1
  br i1 %92, label %93, label %95, !prof !5

93:                                               ; preds = %90
  %94 = add nsw i32 %91, -1
  store i32 %94, ptr %86, align 4, !tbaa !6
  br label %lean_dec.exit

95:                                               ; preds = %90
  %.not.i25 = icmp eq i32 %91, 0
  br i1 %.not.i25, label %lean_dec.exit, label %96

96:                                               ; preds = %95
  tail call void @lean_dec_ref_cold(ptr noundef nonnull %86) #5
  br label %lean_dec.exit

lean_dec.exit:                                    ; preds = %96, %95, %93, %lean_dec.exit18
  ret i8 %87
}